; ModuleID = '49/289.c'
source_filename = "49/289.c"
target datalayout = "e-m:e-p270:32:32-p271:32:32-p272:64:64-i64:64-f80:128-n8:16:32:64-S128"
target triple = "x86_64-pc-linux-gnu"

@.str = private unnamed_addr constant [3 x i8] c"%s\00", align 1
@str = common dso_local global [500 x i8] zeroinitializer, align 16
@.str.1 = private unnamed_addr constant [4 x i8] c"%s\0A\00", align 1
@huiwen = common dso_local global [500 x i8] zeroinitializer, align 16

; Function Attrs: noinline nounwind uwtable
define dso_local void @main() #0 {
  %1 = alloca i32, align 4
  %2 = alloca i32, align 4
  %3 = alloca i32, align 4
  %4 = alloca i32, align 4
  %5 = call i32 (i8*, ...) @__isoc99_scanf(i8* getelementptr inbounds ([3 x i8], [3 x i8]* @.str, i64 0, i64 0), i8* getelementptr inbounds ([500 x i8], [500 x i8]* @str, i64 0, i64 0))
  store i32 2, i32* %4, align 4
  br label %6

6:                                                ; preds = %32, %0
  %7 = load i32, i32* %4, align 4
  %8 = sext i32 %7 to i64
  %9 = call i64 @strlen(i8* getelementptr inbounds ([500 x i8], [500 x i8]* @str, i64 0, i64 0)) #3
  %10 = icmp ult i64 %8, %9
  br i1 %10, label %11, label %35

11:                                               ; preds = %6
  store i32 0, i32* %1, align 4
  br label %12

12:                                               ; preds = %28, %11
  %13 = load i32, i32* %1, align 4
  %14 = sext i32 %13 to i64
  %15 = call i64 @strlen(i8* getelementptr inbounds ([500 x i8], [500 x i8]* @str, i64 0, i64 0)) #3
  %16 = icmp ult i64 %14, %15
  br i1 %16, label %17, label %31

17:                                               ; preds = %12
  %18 = load i32, i32* %1, align 4
  %19 = load i32, i32* %1, align 4
  %20 = load i32, i32* %4, align 4
  %21 = add nsw i32 %19, %20
  %22 = sub nsw i32 %21, 1
  %23 = call i32 @f(i32 %18, i32 %22)
  %24 = icmp eq i32 %23, 1
  br i1 %24, label %25, label %27

25:                                               ; preds = %17
  %26 = call i32 (i8*, ...) @printf(i8* getelementptr inbounds ([4 x i8], [4 x i8]* @.str.1, i64 0, i64 0), i8* getelementptr inbounds ([500 x i8], [500 x i8]* @huiwen, i64 0, i64 0))
  br label %27

27:                                               ; preds = %25, %17
  br label %28

28:                                               ; preds = %27
  %29 = load i32, i32* %1, align 4
  %30 = add nsw i32 %29, 1
  store i32 %30, i32* %1, align 4
  br label %12

31:                                               ; preds = %12
  br label %32

32:                                               ; preds = %31
  %33 = load i32, i32* %4, align 4
  %34 = add nsw i32 %33, 1
  store i32 %34, i32* %4, align 4
  br label %6

35:                                               ; preds = %6
  ret void
}

declare dso_local i32 @__isoc99_scanf(i8*, ...) #1

; Function Attrs: nounwind readonly
declare dso_local i64 @strlen(i8*) #2

; Function Attrs: noinline nounwind uwtable
define dso_local i32 @f(i32 %0, i32 %1) #0 {
  %3 = alloca i32, align 4
  %4 = alloca i32, align 4
  %5 = alloca i32, align 4
  %6 = alloca i32, align 4
  %7 = alloca i32, align 4
  %8 = alloca [500 x i8], align 16
  %9 = alloca [500 x i8], align 16
  store i32 %0, i32* %4, align 4
  store i32 %1, i32* %5, align 4
  store i32 0, i32* %6, align 4
  store i32 0, i32* %7, align 4
  store i32 0, i32* %7, align 4
  br label %10

10:                                               ; preds = %52, %2
  %11 = load i32, i32* %7, align 4
  %12 = load i32, i32* %5, align 4
  %13 = load i32, i32* %4, align 4
  %14 = sub nsw i32 %12, %13
  %15 = icmp sle i32 %11, %14
  br i1 %15, label %16, label %55

16:                                               ; preds = %10
  %17 = load i32, i32* %4, align 4
  %18 = load i32, i32* %7, align 4
  %19 = add nsw i32 %17, %18
  %20 = sext i32 %19 to i64
  %21 = getelementptr inbounds [500 x i8], [500 x i8]* @str, i64 0, i64 %20
  %22 = load i8, i8* %21, align 1
  %23 = load i32, i32* %7, align 4
  %24 = sext i32 %23 to i64
  %25 = getelementptr inbounds [500 x i8], [500 x i8]* %8, i64 0, i64 %24
  store i8 %22, i8* %25, align 1
  %26 = load i32, i32* %5, align 4
  %27 = load i32, i32* %7, align 4
  %28 = sub nsw i32 %26, %27
  %29 = sext i32 %28 to i64
  %30 = getelementptr inbounds [500 x i8], [500 x i8]* @str, i64 0, i64 %29
  %31 = load i8, i8* %30, align 1
  %32 = load i32, i32* %7, align 4
  %33 = sext i32 %32 to i64
  %34 = getelementptr inbounds [500 x i8], [500 x i8]* %9, i64 0, i64 %33
  store i8 %31, i8* %34, align 1
  %35 = load i32, i32* %7, align 4
  %36 = sext i32 %35 to i64
  %37 = getelementptr inbounds [500 x i8], [500 x i8]* %8, i64 0, i64 %36
  %38 = load i8, i8* %37, align 1
  %39 = sext i8 %38 to i32
  %40 = load i32, i32* %7, align 4
  %41 = sext i32 %40 to i64
  %42 = getelementptr inbounds [500 x i8], [500 x i8]* %9, i64 0, i64 %41
  %43 = load i8, i8* %42, align 1
  %44 = sext i8 %43 to i32
  %45 = icmp eq i32 %39, %44
  br i1 %45, label %46, label %48

46:                                               ; preds = %16
  %47 = load i32, i32* %6, align 4
  store i32 %47, i32* %6, align 4
  br label %51

48:                                               ; preds = %16
  %49 = load i32, i32* %6, align 4
  %50 = add nsw i32 %49, 1
  store i32 %50, i32* %6, align 4
  br label %51

51:                                               ; preds = %48, %46
  br label %52

52:                                               ; preds = %51
  %53 = load i32, i32* %7, align 4
  %54 = add nsw i32 %53, 1
  store i32 %54, i32* %7, align 4
  br label %10

55:                                               ; preds = %10
  %56 = load i32, i32* %6, align 4
  %57 = icmp eq i32 %56, 0
  br i1 %57, label %58, label %77

58:                                               ; preds = %55
  store i32 0, i32* %7, align 4
  br label %59

59:                                               ; preds = %73, %58
  %60 = load i32, i32* %7, align 4
  %61 = load i32, i32* %5, align 4
  %62 = load i32, i32* %4, align 4
  %63 = sub nsw i32 %61, %62
  %64 = icmp sle i32 %60, %63
  br i1 %64, label %65, label %76

65:                                               ; preds = %59
  %66 = load i32, i32* %7, align 4
  %67 = sext i32 %66 to i64
  %68 = getelementptr inbounds [500 x i8], [500 x i8]* %8, i64 0, i64 %67
  %69 = load i8, i8* %68, align 1
  %70 = load i32, i32* %7, align 4
  %71 = sext i32 %70 to i64
  %72 = getelementptr inbounds [500 x i8], [500 x i8]* @huiwen, i64 0, i64 %71
  store i8 %69, i8* %72, align 1
  br label %73

73:                                               ; preds = %65
  %74 = load i32, i32* %7, align 4
  %75 = add nsw i32 %74, 1
  store i32 %75, i32* %7, align 4
  br label %59

76:                                               ; preds = %59
  store i32 1, i32* %3, align 4
  br label %78

77:                                               ; preds = %55
  store i32 0, i32* %3, align 4
  br label %78

78:                                               ; preds = %77, %76
  %79 = load i32, i32* %3, align 4
  ret i32 %79
}

declare dso_local i32 @printf(i8*, ...) #1


!llvm.module.flags = !{!0}
!llvm.ident = !{!1}

!0 = !{i32 1, !"wchar_size", i32 4}
!1 = !{!"clang version 10.0.0-4ubuntu1 "}
